; Function Attrs: nounwind uwtable
define ptr @l_Lean_FuzzyMatching_fuzzyMatchScore_x3f(ptr noundef %0, ptr noundef %1) local_unnamed_addr #0 {
lean_dec.exit11:
  %2 = getelementptr i8, ptr %0, i64 8
  %.val = load i64, ptr %2, align 8, !tbaa !13
  %.mask = and i64 %.val, 9223372036854775807
  %.not = icmp eq i64 %.mask, 1
  br i1 %.not, label %20, label %3

3:                                                ; preds = %lean_dec.exit11
  %4 = getelementptr i8, ptr %1, i64 24
  %.val19.i = load i64, ptr %4, align 8, !tbaa !13
  %5 = shl i64 %.val19.i, 1
  %6 = getelementptr i8, ptr %0, i64 24
  %.val.i = load i64, ptr %6, align 8, !tbaa !13
  %7 = shl i64 %.val.i, 1
  %.not.i14 = icmp ult i64 %5, %7
  br i1 %.not.i14, label %10, label %8

8:                                                ; preds = %3
  %9 = tail call ptr @l_Lean_FuzzyMatching_fuzzyMatchScore_x3f___lambda__3(ptr noundef nonnull %0, ptr noundef nonnull %1, ptr nonnull poison)
  br label %l_Lean_FuzzyMatching_fuzzyMatchScore_x3f___lambda__4.exit

10:                                               ; preds = %3
  %11 = ptrtoint ptr %0 to i64
  %12 = and i64 %11, 1
  %.not20.i = icmp eq i64 %12, 0
  br i1 %.not20.i, label %13, label %l_Lean_FuzzyMatching_fuzzyMatchScore_x3f___lambda__4.exit

13:                                               ; preds = %10
  %14 = load i32, ptr %0, align 4, !tbaa !5
  %15 = icmp sgt i32 %14, 1
  br i1 %15, label %16, label %18, !prof !10

16:                                               ; preds = %13
  %17 = add nsw i32 %14, -1
  store i32 %17, ptr %0, align 4, !tbaa !5
  br label %l_Lean_FuzzyMatching_fuzzyMatchScore_x3f___lambda__4.exit

18:                                               ; preds = %13
  %.not.i17.i = icmp eq i32 %14, 0
  br i1 %.not.i17.i, label %l_Lean_FuzzyMatching_fuzzyMatchScore_x3f___lambda__4.exit, label %19

19:                                               ; preds = %18
  tail call void @lean_dec_ref_cold(ptr noundef nonnull %0) #7
  br label %l_Lean_FuzzyMatching_fuzzyMatchScore_x3f___lambda__4.exit

20:                                               ; preds = %lean_dec.exit11
  %21 = ptrtoint ptr %0 to i64
  %22 = and i64 %21, 1
  %.not16 = icmp eq i64 %22, 0
  br i1 %.not16, label %23, label %lean_dec.exit

23:                                               ; preds = %20
  %24 = load i32, ptr %0, align 4, !tbaa !5
  %25 = icmp sgt i32 %24, 1
  br i1 %25, label %26, label %28, !prof !10

26:                                               ; preds = %23
  %27 = add nsw i32 %24, -1
  store i32 %27, ptr %0, align 4, !tbaa !5
  br label %lean_dec.exit

28:                                               ; preds = %23
  %.not.i12 = icmp eq i32 %24, 0
  br i1 %.not.i12, label %lean_dec.exit, label %29

29:                                               ; preds = %28
  tail call void @lean_dec_ref_cold(ptr noundef nonnull %0) #7
  br label %lean_dec.exit

lean_dec.exit:                                    ; preds = %29, %28, %26, %20
  %30 = load ptr, ptr @l_Lean_FuzzyMatching_fuzzyMatchScore_x3f___lambda__1___closed__5, align 8, !tbaa !11
  br label %l_Lean_FuzzyMatching_fuzzyMatchScore_x3f___lambda__4.exit

l_Lean_FuzzyMatching_fuzzyMatchScore_x3f___lambda__4.exit: ; preds = %19, %18, %16, %10, %8, %lean_dec.exit
  %.0 = phi ptr [ %30, %lean_dec.exit ], [ %9, %8 ], [ inttoptr (i64 1 to ptr), %19 ], [ inttoptr (i64 1 to ptr), %18 ], [ inttoptr (i64 1 to ptr), %16 ], [ inttoptr (i64 1 to ptr), %10 ]
  ret ptr %.0
}